target datalayout = "e-m:e-p270:32:32-p271:32:32-p272:64:64-i64:64-i128:128-f80:128-n8:16:32:64-S128"
target triple = "x86_64-pc-linux-gnu"

%struct.AbiType = type { %union.anon.1 }
%union.anon.1 = type { ptr }

; Function Attrs: nounwind uwtable
define internal zeroext i1 @abi_type_is_type(ptr %0) #0 {
  %2 = alloca %struct.AbiType, align 8
  %3 = getelementptr inbounds %struct.AbiType, ptr %2, i32 0, i32 0
  %4 = getelementptr inbounds %union.anon.1, ptr %3, i32 0, i32 0
  store ptr %0, ptr %4, align 8
  %5 = getelementptr inbounds %struct.AbiType, ptr %2, i32 0, i32 0
  %6 = load i64, ptr %5, align 8
  %7 = and i64 %6, 1
  %8 = icmp ne i64 %7, 0
  %9 = xor i1 %8, true
  ret i1 %9
}

; Function Attrs: nounwind uwtable
define dso_local i32 @abi_type_size(ptr %0) #0 {
  %2 = alloca i32, align 4
  %3 = alloca %struct.AbiType, align 8
  %4 = getelementptr inbounds %struct.AbiType, ptr %3, i32 0, i32 0
  %5 = getelementptr inbounds %union.anon.1, ptr %4, i32 0, i32 0
  store ptr %0, ptr %5, align 8
  %6 = getelementptr inbounds %struct.AbiType, ptr %3, i32 0, i32 0
  %7 = getelementptr inbounds %union.anon.1, ptr %6, i32 0, i32 0
  %8 = load ptr, ptr %7, align 8
  %9 = call zeroext i1 @abi_type_is_type(ptr %8)
  br i1 %9, label %10, label %14

10:                                               ; preds = %1
  %11 = getelementptr inbounds %struct.AbiType, ptr %3, i32 0, i32 0
  %12 = load ptr, ptr %11, align 8
  %13 = call i32 @type_size(ptr noundef %12)
  store i32 %13, ptr %2, align 4
  br label %20

14:                                               ; preds = %1
  %15 = getelementptr inbounds %struct.AbiType, ptr %3, i32 0, i32 0
  %16 = load i64, ptr %15, align 8
  %17 = sub i64 %16, 1
  %18 = udiv i64 %17, 8
  %19 = trunc i64 %18 to i32
  store i32 %19, ptr %2, align 4
  br label %20

20:                                               ; preds = %14, %10
  %21 = load i32, ptr %2, align 4
  ret i32 %21
}