; Function Attrs: nounwind uwtable
define dso_local i32 @abi_type_size(ptr %0) local_unnamed_addr #2 {
  %2 = ptrtoint ptr %0 to i64
  %3 = and i64 %2, 1
  %.not.i = icmp eq i64 %3, 0
  br i1 %.not.i, label %4, label %6

4:                                                ; preds = %1
  %5 = tail call i32 @type_size(ptr noundef %0) #5
  br label %10

6:                                                ; preds = %1
  %7 = add i64 %2, 34359738367
  %8 = lshr i64 %7, 3
  %9 = trunc i64 %8 to i32
  br label %10

10:                                               ; preds = %6, %4
  %.0 = phi i32 [ %5, %4 ], [ %9, %6 ]
  ret i32 %.0
}